target datalayout = "e-m:e-p270:32:32-p271:32:32-p272:64:64-i64:64-i128:128-f80:128-n8:16:32:64-S128"
target triple = "x86_64-pc-linux-gnu"

%struct.Cbs2_Par_t_ = type { i32, i32, i32, i32, i32, i32, i32, i32, i32, i32, i32, i32 }
%struct.Cbs2_Man_t_ = type { %struct.Cbs2_Par_t_, ptr, %struct.Cbs2_Que_t_, %struct.Cbs2_Que_t_, %struct.Cbs2_Que_t_, ptr, ptr, %struct.Vec_Str_t_, %struct.Vec_Str_t_, %struct.Vec_Int_t_, %struct.Vec_Int_t_, %struct.Vec_Int_t_, %struct.Vec_Int_t_, %struct.Vec_Int_t_, %struct.Vec_Int_t_, %struct.Vec_Int_t_, %struct.Vec_Int_t_, i32, i32, i32, i32, i32, i32, i32, i64, i64, i64, i64, i64, [3 x i32], [2 x i32], i32 }
%struct.Cbs2_Que_t_ = type { i32, i32, i32, ptr }
%struct.Vec_Str_t_ = type { i32, i32, ptr }
%struct.Vec_Int_t_ = type { i32, i32, ptr }

; Function Attrs: inlinehint nounwind uwtable
define internal i32 @Abc_Lit2Var(i32 noundef %0) #5 {
  %2 = alloca i32, align 4
  store i32 %0, ptr %2, align 4, !tbaa !19
  %3 = load i32, ptr %2, align 4, !tbaa !19
  %4 = ashr i32 %3, 1
  ret i32 %4
}

; Function Attrs: inlinehint nounwind uwtable
define internal ptr @Cbs2_ClauseLits(ptr noundef %0, i32 noundef %1) #5 {
  %3 = alloca ptr, align 8
  %4 = alloca i32, align 4
  store ptr %0, ptr %3, align 8, !tbaa !17
  store i32 %1, ptr %4, align 4, !tbaa !19
  %5 = load ptr, ptr %3, align 8, !tbaa !17
  %6 = getelementptr inbounds nuw %struct.Cbs2_Man_t_, ptr %5, i32 0, i32 4
  %7 = getelementptr inbounds nuw %struct.Cbs2_Que_t_, ptr %6, i32 0, i32 3
  %8 = load ptr, ptr %7, align 8, !tbaa !36
  %9 = load i32, ptr %4, align 4, !tbaa !19
  %10 = sext i32 %9 to i64
  %11 = getelementptr inbounds i32, ptr %8, i64 %10
  %12 = getelementptr inbounds i32, ptr %11, i64 1
  ret ptr %12
}

; Function Attrs: inlinehint nounwind uwtable
define internal void @Cbs2_QueGrow(ptr noundef %0, i32 noundef %1) #5 {
  %3 = alloca ptr, align 8
  %4 = alloca i32, align 4
  store ptr %0, ptr %3, align 8, !tbaa !88
  store i32 %1, ptr %4, align 4, !tbaa !19
  %5 = load ptr, ptr %3, align 8, !tbaa !88
  %6 = getelementptr inbounds nuw %struct.Cbs2_Que_t_, ptr %5, i32 0, i32 1
  %7 = load i32, ptr %6, align 4, !tbaa !90
  %8 = load i32, ptr %4, align 4, !tbaa !19
  %9 = add nsw i32 %7, %8
  %10 = load ptr, ptr %3, align 8, !tbaa !88
  %11 = getelementptr inbounds nuw %struct.Cbs2_Que_t_, ptr %10, i32 0, i32 2
  %12 = load i32, ptr %11, align 8, !tbaa !91
  %13 = icmp sgt i32 %9, %12
  br i1 %13, label %14, label %44

14:                                               ; preds = %2
  %15 = load ptr, ptr %3, align 8, !tbaa !88
  %16 = getelementptr inbounds nuw %struct.Cbs2_Que_t_, ptr %15, i32 0, i32 2
  %17 = load i32, ptr %16, align 8, !tbaa !91
  %18 = mul nsw i32 %17, 2
  store i32 %18, ptr %16, align 8, !tbaa !91
  %19 = load ptr, ptr %3, align 8, !tbaa !88
  %20 = getelementptr inbounds nuw %struct.Cbs2_Que_t_, ptr %19, i32 0, i32 3
  %21 = load ptr, ptr %20, align 8, !tbaa !92
  %22 = icmp ne ptr %21, null
  br i1 %22, label %23, label %33

23:                                               ; preds = %14
  %24 = load ptr, ptr %3, align 8, !tbaa !88
  %25 = getelementptr inbounds nuw %struct.Cbs2_Que_t_, ptr %24, i32 0, i32 3
  %26 = load ptr, ptr %25, align 8, !tbaa !92
  %27 = load ptr, ptr %3, align 8, !tbaa !88
  %28 = getelementptr inbounds nuw %struct.Cbs2_Que_t_, ptr %27, i32 0, i32 2
  %29 = load i32, ptr %28, align 8, !tbaa !91
  %30 = sext i32 %29 to i64
  %31 = mul i64 4, %30
  %32 = call ptr @realloc(ptr noundef %26, i64 noundef %31) #14
  br label %40

33:                                               ; preds = %14
  %34 = load ptr, ptr %3, align 8, !tbaa !88
  %35 = getelementptr inbounds nuw %struct.Cbs2_Que_t_, ptr %34, i32 0, i32 2
  %36 = load i32, ptr %35, align 8, !tbaa !91
  %37 = sext i32 %36 to i64
  %38 = mul i64 4, %37
  %39 = call noalias ptr @malloc(i64 noundef %38) #13
  br label %40

40:                                               ; preds = %33, %23
  %41 = phi ptr [ %32, %23 ], [ %39, %33 ]
  %42 = load ptr, ptr %3, align 8, !tbaa !88
  %43 = getelementptr inbounds nuw %struct.Cbs2_Que_t_, ptr %42, i32 0, i32 3
  store ptr %41, ptr %43, align 8, !tbaa !92
  br label %44

44:                                               ; preds = %40, %2
  ret void
}

; Function Attrs: inlinehint nounwind uwtable
define internal i32 @Cbs2_ClauseSize(ptr noundef %0, i32 noundef %1) #5 {
  %3 = alloca ptr, align 8
  %4 = alloca i32, align 4
  store ptr %0, ptr %3, align 8, !tbaa !17
  store i32 %1, ptr %4, align 4, !tbaa !19
  %5 = load ptr, ptr %3, align 8, !tbaa !17
  %6 = getelementptr inbounds nuw %struct.Cbs2_Man_t_, ptr %5, i32 0, i32 4
  %7 = getelementptr inbounds nuw %struct.Cbs2_Que_t_, ptr %6, i32 0, i32 3
  %8 = load ptr, ptr %7, align 8, !tbaa !36
  %9 = load i32, ptr %4, align 4, !tbaa !19
  %10 = sext i32 %9 to i64
  %11 = getelementptr inbounds i32, ptr %8, i64 %10
  %12 = load i32, ptr %11, align 4, !tbaa !19
  ret i32 %12
}

; Function Attrs: inlinehint nounwind uwtable
define internal void @Cbs2_QuePush(ptr noundef %0, i32 noundef %1) #5 {
  %3 = alloca ptr, align 8
  %4 = alloca i32, align 4
  store ptr %0, ptr %3, align 8, !tbaa !88
  store i32 %1, ptr %4, align 4, !tbaa !19
  %5 = load ptr, ptr %3, align 8, !tbaa !88
  %6 = getelementptr inbounds nuw %struct.Cbs2_Que_t_, ptr %5, i32 0, i32 1
  %7 = load i32, ptr %6, align 4, !tbaa !90
  %8 = load ptr, ptr %3, align 8, !tbaa !88
  %9 = getelementptr inbounds nuw %struct.Cbs2_Que_t_, ptr %8, i32 0, i32 2
  %10 = load i32, ptr %9, align 8, !tbaa !91
  %11 = icmp eq i32 %7, %10
  br i1 %11, label %12, label %42

12:                                               ; preds = %2
  %13 = load ptr, ptr %3, align 8, !tbaa !88
  %14 = getelementptr inbounds nuw %struct.Cbs2_Que_t_, ptr %13, i32 0, i32 2
  %15 = load i32, ptr %14, align 8, !tbaa !91
  %16 = mul nsw i32 %15, 2
  store i32 %16, ptr %14, align 8, !tbaa !91
  %17 = load ptr, ptr %3, align 8, !tbaa !88
  %18 = getelementptr inbounds nuw %struct.Cbs2_Que_t_, ptr %17, i32 0, i32 3
  %19 = load ptr, ptr %18, align 8, !tbaa !92
  %20 = icmp ne ptr %19, null
  br i1 %20, label %21, label %31

21:                                               ; preds = %12
  %22 = load ptr, ptr %3, align 8, !tbaa !88
  %23 = getelementptr inbounds nuw %struct.Cbs2_Que_t_, ptr %22, i32 0, i32 3
  %24 = load ptr, ptr %23, align 8, !tbaa !92
  %25 = load ptr, ptr %3, align 8, !tbaa !88
  %26 = getelementptr inbounds nuw %struct.Cbs2_Que_t_, ptr %25, i32 0, i32 2
  %27 = load i32, ptr %26, align 8, !tbaa !91
  %28 = sext i32 %27 to i64
  %29 = mul i64 4, %28
  %30 = call ptr @realloc(ptr noundef %24, i64 noundef %29) #14
  br label %38

31:                                               ; preds = %12
  %32 = load ptr, ptr %3, align 8, !tbaa !88
  %33 = getelementptr inbounds nuw %struct.Cbs2_Que_t_, ptr %32, i32 0, i32 2
  %34 = load i32, ptr %33, align 8, !tbaa !91
  %35 = sext i32 %34 to i64
  %36 = mul i64 4, %35
  %37 = call noalias ptr @malloc(i64 noundef %36) #13
  br label %38

38:                                               ; preds = %31, %21
  %39 = phi ptr [ %30, %21 ], [ %37, %31 ]
  %40 = load ptr, ptr %3, align 8, !tbaa !88
  %41 = getelementptr inbounds nuw %struct.Cbs2_Que_t_, ptr %40, i32 0, i32 3
  store ptr %39, ptr %41, align 8, !tbaa !92
  br label %42

42:                                               ; preds = %38, %2
  %43 = load i32, ptr %4, align 4, !tbaa !19
  %44 = load ptr, ptr %3, align 8, !tbaa !88
  %45 = getelementptr inbounds nuw %struct.Cbs2_Que_t_, ptr %44, i32 0, i32 3
  %46 = load ptr, ptr %45, align 8, !tbaa !92
  %47 = load ptr, ptr %3, align 8, !tbaa !88
  %48 = getelementptr inbounds nuw %struct.Cbs2_Que_t_, ptr %47, i32 0, i32 1
  %49 = load i32, ptr %48, align 4, !tbaa !90
  %50 = add nsw i32 %49, 1
  store i32 %50, ptr %48, align 4, !tbaa !90
  %51 = sext i32 %49 to i64
  %52 = getelementptr inbounds i32, ptr %46, i64 %51
  store i32 %43, ptr %52, align 4, !tbaa !19
  ret void
}

; Function Attrs: inlinehint nounwind uwtable
define internal i32 @Cbs2_ManAnalyze(ptr noundef %0, i32 noundef %1, i32 noundef %2, i32 noundef %3, i32 noundef %4) #5 {
  %6 = alloca ptr, align 8
  %7 = alloca i32, align 4
  %8 = alloca i32, align 4
  %9 = alloca i32, align 4
  %10 = alloca i32, align 4
  %11 = alloca ptr, align 8
  %12 = alloca i32, align 4
  %13 = alloca ptr, align 8
  %14 = alloca i32, align 4
  store ptr %0, ptr %6, align 8, !tbaa !17
  store i32 %1, ptr %7, align 4, !tbaa !19
  store i32 %2, ptr %8, align 4, !tbaa !19
  store i32 %3, ptr %9, align 4, !tbaa !19
  store i32 %4, ptr %10, align 4, !tbaa !19
  call void @llvm.lifetime.start.p0(i64 8, ptr %11) #11
  %15 = load ptr, ptr %6, align 8, !tbaa !17
  %16 = getelementptr inbounds nuw %struct.Cbs2_Man_t_, ptr %15, i32 0, i32 4
  store ptr %16, ptr %11, align 8, !tbaa !88
  %17 = load ptr, ptr %11, align 8, !tbaa !88
  call void @Cbs2_QuePush(ptr noundef %17, i32 noundef 0)
  %18 = load ptr, ptr %11, align 8, !tbaa !88
  call void @Cbs2_QuePush(ptr noundef %18, i32 noundef 0)
  %19 = load i32, ptr %9, align 4, !tbaa !19
  %20 = icmp ne i32 %19, 0
  br i1 %20, label %21, label %32

21:                                               ; preds = %5
  %22 = load ptr, ptr %11, align 8, !tbaa !88
  %23 = load i32, ptr %8, align 4, !tbaa !19
  call void @Cbs2_QuePush(ptr noundef %22, i32 noundef %23)
  %24 = load ptr, ptr %11, align 8, !tbaa !88
  %25 = load i32, ptr %9, align 4, !tbaa !19
  call void @Cbs2_QuePush(ptr noundef %24, i32 noundef %25)
  %26 = load i32, ptr %10, align 4, !tbaa !19
  %27 = icmp ne i32 %26, 0
  br i1 %27, label %28, label %31

28:                                               ; preds = %21
  %29 = load ptr, ptr %11, align 8, !tbaa !88
  %30 = load i32, ptr %10, align 4, !tbaa !19
  call void @Cbs2_QuePush(ptr noundef %29, i32 noundef %30)
  br label %31

31:                                               ; preds = %28, %21
  br label %57

32:                                               ; preds = %5
  call void @llvm.lifetime.start.p0(i64 4, ptr %12) #11
  call void @llvm.lifetime.start.p0(i64 8, ptr %13) #11
  call void @llvm.lifetime.start.p0(i64 4, ptr %14) #11
  %33 = load ptr, ptr %6, align 8, !tbaa !17
  %34 = load i32, ptr %10, align 4, !tbaa !19
  %35 = call i32 @Cbs2_ClauseSize(ptr noundef %33, i32 noundef %34)
  store i32 %35, ptr %14, align 4, !tbaa !19
  %36 = load ptr, ptr %11, align 8, !tbaa !88
  %37 = load i32, ptr %14, align 4, !tbaa !19
  call void @Cbs2_QueGrow(ptr noundef %36, i32 noundef %37)
  %38 = load ptr, ptr %6, align 8, !tbaa !17
  %39 = load i32, ptr %10, align 4, !tbaa !19
  %40 = call ptr @Cbs2_ClauseLits(ptr noundef %38, i32 noundef %39)
  store ptr %40, ptr %13, align 8, !tbaa !80
  store i32 0, ptr %12, align 4, !tbaa !19
  br label %41

41:                                               ; preds = %53, %32
  %42 = load i32, ptr %12, align 4, !tbaa !19
  %43 = load i32, ptr %14, align 4, !tbaa !19
  %44 = icmp slt i32 %42, %43
  br i1 %44, label %45, label %56

45:                                               ; preds = %41
  %46 = load ptr, ptr %11, align 8, !tbaa !88
  %47 = load ptr, ptr %13, align 8, !tbaa !80
  %48 = load i32, ptr %12, align 4, !tbaa !19
  %49 = sext i32 %48 to i64
  %50 = getelementptr inbounds i32, ptr %47, i64 %49
  %51 = load i32, ptr %50, align 4, !tbaa !19
  %52 = call i32 @Abc_Lit2Var(i32 noundef %51)
  call void @Cbs2_QuePush(ptr noundef %46, i32 noundef %52)
  br label %53

53:                                               ; preds = %45
  %54 = load i32, ptr %12, align 4, !tbaa !19
  %55 = add nsw i32 %54, 1
  store i32 %55, ptr %12, align 4, !tbaa !19
  br label %41, !llvm.loop !138

56:                                               ; preds = %41
  call void @llvm.lifetime.end.p0(i64 4, ptr %14) #11
  call void @llvm.lifetime.end.p0(i64 8, ptr %13) #11
  call void @llvm.lifetime.end.p0(i64 4, ptr %12) #11
  br label %57

57:                                               ; preds = %56, %31
  %58 = load ptr, ptr %6, align 8, !tbaa !17
  %59 = load i32, ptr %7, align 4, !tbaa !19
  %60 = call i32 @Cbs2_ManDeriveReason(ptr noundef %58, i32 noundef %59)
  call void @llvm.lifetime.end.p0(i64 8, ptr %11) #11
  ret i32 %60
}